target datalayout = "e-m:e-p270:32:32-p271:32:32-p272:64:64-i64:64-i128:128-f80:128-n8:16:32:64-S128"
target triple = "x86_64-pc-linux-gnu"

%struct.avifSampleTable = type { %struct.avifSampleTableChunkArray, %struct.avifSampleDescriptionArray, %struct.avifSampleTableSampleToChunkArray, %struct.avifSampleTableSampleSizeArray, %struct.avifSampleTableTimeToSampleArray, %struct.avifSyncSampleArray, i32 }
%struct.avifSampleTableChunkArray = type { ptr, i32, i32, i32 }
%struct.avifSampleDescriptionArray = type { ptr, i32, i32, i32 }
%struct.avifSampleTableSampleToChunkArray = type { ptr, i32, i32, i32 }
%struct.avifSampleTableSampleSizeArray = type { ptr, i32, i32, i32 }
%struct.avifSampleTableTimeToSampleArray = type { ptr, i32, i32, i32 }
%struct.avifSyncSampleArray = type { ptr, i32, i32, i32 }
%struct.avifPropertyArray = type { ptr, i32, i32, i32 }
%struct.avifSampleDescription = type { [4 x i8], %struct.avifPropertyArray }

; Function Attrs: nounwind uwtable
define internal void @avifSampleTableDestroy(ptr noundef %0) #0 {
  %2 = alloca ptr, align 8
  %3 = alloca i32, align 4
  %4 = alloca ptr, align 8
  store ptr %0, ptr %2, align 8
  %5 = load ptr, ptr %2, align 8
  %6 = getelementptr inbounds nuw %struct.avifSampleTable, ptr %5, i32 0, i32 0
  call void @avifArrayDestroy(ptr noundef %6)
  store i32 0, ptr %3, align 4
  br label %7

7:                                                ; preds = %24, %1
  %8 = load i32, ptr %3, align 4
  %9 = load ptr, ptr %2, align 8
  %10 = getelementptr inbounds nuw %struct.avifSampleTable, ptr %9, i32 0, i32 1
  %11 = getelementptr inbounds nuw %struct.avifSampleDescriptionArray, ptr %10, i32 0, i32 2
  %12 = load i32, ptr %11, align 4
  %13 = icmp ult i32 %8, %12
  br i1 %13, label %14, label %27

14:                                               ; preds = %7
  %15 = load ptr, ptr %2, align 8
  %16 = getelementptr inbounds nuw %struct.avifSampleTable, ptr %15, i32 0, i32 1
  %17 = getelementptr inbounds nuw %struct.avifSampleDescriptionArray, ptr %16, i32 0, i32 0
  %18 = load ptr, ptr %17, align 8
  %19 = load i32, ptr %3, align 4
  %20 = zext i32 %19 to i64
  %21 = getelementptr inbounds %struct.avifSampleDescription, ptr %18, i64 %20
  store ptr %21, ptr %4, align 8
  %22 = load ptr, ptr %4, align 8
  %23 = getelementptr inbounds nuw %struct.avifSampleDescription, ptr %22, i32 0, i32 1
  call void @avifArrayDestroy(ptr noundef %23)
  br label %24

24:                                               ; preds = %14
  %25 = load i32, ptr %3, align 4
  %26 = add i32 %25, 1
  store i32 %26, ptr %3, align 4
  br label %7, !llvm.loop !58

27:                                               ; preds = %7
  %28 = load ptr, ptr %2, align 8
  %29 = getelementptr inbounds nuw %struct.avifSampleTable, ptr %28, i32 0, i32 1
  call void @avifArrayDestroy(ptr noundef %29)
  %30 = load ptr, ptr %2, align 8
  %31 = getelementptr inbounds nuw %struct.avifSampleTable, ptr %30, i32 0, i32 2
  call void @avifArrayDestroy(ptr noundef %31)
  %32 = load ptr, ptr %2, align 8
  %33 = getelementptr inbounds nuw %struct.avifSampleTable, ptr %32, i32 0, i32 3
  call void @avifArrayDestroy(ptr noundef %33)
  %34 = load ptr, ptr %2, align 8
  %35 = getelementptr inbounds nuw %struct.avifSampleTable, ptr %34, i32 0, i32 4
  call void @avifArrayDestroy(ptr noundef %35)
  %36 = load ptr, ptr %2, align 8
  %37 = getelementptr inbounds nuw %struct.avifSampleTable, ptr %36, i32 0, i32 5
  call void @avifArrayDestroy(ptr noundef %37)
  %38 = load ptr, ptr %2, align 8
  call void @avifFree(ptr noundef %38)
  ret void
}