; Function Attrs: nounwind uwtable
define internal fastcc void @avifSampleTableDestroy(ptr noundef nonnull %0) unnamed_addr #0 {
  tail call void @avifArrayDestroy(ptr noundef nonnull %0) #13
  %2 = getelementptr inbounds nuw i8, ptr %0, i64 24
  %3 = getelementptr inbounds nuw i8, ptr %0, i64 36
  %4 = load i32, ptr %3, align 4
  %.not = icmp eq i32 %4, 0
  br i1 %.not, label %._crit_edge, label %.lr.ph

.lr.ph:                                           ; preds = %1, %.lr.ph
  %indvars.iv = phi i64 [ %indvars.iv.next, %.lr.ph ], [ 0, %1 ]
  %5 = load ptr, ptr %2, align 8
  %6 = getelementptr inbounds nuw %struct.avifSampleDescription, ptr %5, i64 %indvars.iv, i32 1
  tail call void @avifArrayDestroy(ptr noundef nonnull %6) #13
  %indvars.iv.next = add nuw nsw i64 %indvars.iv, 1
  %7 = load i32, ptr %3, align 4
  %8 = zext i32 %7 to i64
  %9 = icmp samesign ult i64 %indvars.iv.next, %8
  br i1 %9, label %.lr.ph, label %._crit_edge, !llvm.loop !73

._crit_edge:                                      ; preds = %.lr.ph, %1
  tail call void @avifArrayDestroy(ptr noundef nonnull %2) #13
  %10 = getelementptr inbounds nuw i8, ptr %0, i64 48
  tail call void @avifArrayDestroy(ptr noundef nonnull %10) #13
  %11 = getelementptr inbounds nuw i8, ptr %0, i64 72
  tail call void @avifArrayDestroy(ptr noundef nonnull %11) #13
  %12 = getelementptr inbounds nuw i8, ptr %0, i64 96
  tail call void @avifArrayDestroy(ptr noundef nonnull %12) #13
  %13 = getelementptr inbounds nuw i8, ptr %0, i64 120
  tail call void @avifArrayDestroy(ptr noundef nonnull %13) #13
  tail call void @avifFree(ptr noundef nonnull %0) #13
  ret void
}